(dp0
S'mafftx'
p1
S'/usr/local/bin/mafft-xinsi'
p2
sS'mafftq'
p3
S'/usr/local/bin/mafft-qinsi'
p4
sS'blastn'
p5
S'/usr/local/ncbi/blast/bin/blastn'
p6
sS'mafft'
p7
S'/usr/local/bin/mafft'
p8
sS'raxml'
p9
S'/usr/bin/raxml'
p10
s.